target datalayout = "e-m:e-p270:32:32-p271:32:32-p272:64:64-i64:64-i128:128-f80:128-n8:16:32:64-S128"
target triple = "x86_64-pc-linux-gnu"

%struct.Curl_llist_node = type { ptr, ptr, ptr, ptr }
%struct.easy_pollset = type { [5 x i32], i32, [5 x i8] }
%struct.curltime = type { i64, i32 }
%struct.ssl_primary_config = type { ptr, ptr, ptr, ptr, ptr, ptr, ptr, ptr, ptr, ptr, ptr, ptr, ptr, ptr, i8, i32, i8, i8 }
%struct.dynbuf = type { ptr, i64, i64, i64 }
%struct.Curl_llist = type { ptr, ptr, ptr, i64 }
%struct.ip_quadruple = type { [46 x i8], [46 x i8], i32, i32 }
%struct.connectdata = type { %struct.Curl_llist_node, ptr, ptr, i64, ptr, i64, ptr, ptr, %struct.hostname, ptr, ptr, %struct.hostname, %struct.proxy_info, %struct.proxy_info, %struct.ip_quadruple, %struct.ip_quadruple, ptr, ptr, ptr, ptr, ptr, %struct.curltime, %struct.curltime, %struct.curltime, [2 x i32], [2 x ptr], [2 x ptr], [2 x ptr], %struct.anon, %struct.easy_pollset, %struct.ssl_primary_config, %struct.ssl_primary_config, %struct.ConnectBits, ptr, ptr, %struct.curltime, i32, i32, %struct.Curl_llist, i32, i32, %struct.ntlmdata, %struct.ntlmdata, %union.anon.1, ptr, ptr, i16, i32, i32, i32, i32, i16, i16, i8, i8, i8, i8, i8, i8, i8 }
%struct.hostname = type { ptr, ptr, ptr, ptr }
%struct.proxy_info = type { %struct.hostname, i32, i8, ptr, ptr }
%struct.anon = type { [2 x %struct.curltime], i32 }
%struct.ConnectBits = type { i64 }
%struct.ntlmdata = type { i32, [8 x i8], i32, ptr }
%union.anon.1 = type { %struct.ftp_conn }
%struct.ftp_conn = type { %struct.pingpong, ptr, ptr, ptr, ptr, ptr, ptr, ptr, i8, i64, ptr, i64, i32, i32, i32, i32, i32, i16, i8, i8, i8, i8, i8 }
%struct.pingpong = type { i64, i8, ptr, i64, i64, %struct.curltime, i64, %struct.dynbuf, %struct.dynbuf, i64, i64, ptr, ptr }
%struct.smb_conn = type { i32, ptr, ptr, ptr, [8 x i8], i32, i16, ptr, ptr, i64, i64, i64, i64 }

@Curl_cfree = external global ptr, align 8

; Function Attrs: nounwind uwtable
define internal i32 @smb_disconnect(ptr noundef %0, ptr noundef %1, i1 noundef zeroext %2) #0 {
  %4 = alloca ptr, align 8
  %5 = alloca ptr, align 8
  %6 = alloca i8, align 1
  %7 = alloca ptr, align 8
  store ptr %0, ptr %4, align 8, !tbaa !3
  store ptr %1, ptr %5, align 8, !tbaa !8
  %8 = zext i1 %2 to i8
  store i8 %8, ptr %6, align 1, !tbaa !86
  call void @llvm.lifetime.start.p0(i64 8, ptr %7) #8
  %9 = load ptr, ptr %5, align 8, !tbaa !8
  %10 = getelementptr inbounds nuw %struct.connectdata, ptr %9, i32 0, i32 43
  store ptr %10, ptr %7, align 8, !tbaa !84
  br label %11

11:                                               ; preds = %3
  %12 = load ptr, ptr @Curl_cfree, align 8, !tbaa !10
  %13 = load ptr, ptr %7, align 8, !tbaa !84
  %14 = getelementptr inbounds nuw %struct.smb_conn, ptr %13, i32 0, i32 3
  %15 = load ptr, ptr %14, align 8, !tbaa !88
  call void %12(ptr noundef %15)
  %16 = load ptr, ptr %7, align 8, !tbaa !84
  %17 = getelementptr inbounds nuw %struct.smb_conn, ptr %16, i32 0, i32 3
  store ptr null, ptr %17, align 8, !tbaa !88
  br label %18

18:                                               ; preds = %11
  br label %19

19:                                               ; preds = %18
  br label %20

20:                                               ; preds = %19
  %21 = load ptr, ptr @Curl_cfree, align 8, !tbaa !10
  %22 = load ptr, ptr %7, align 8, !tbaa !84
  %23 = getelementptr inbounds nuw %struct.smb_conn, ptr %22, i32 0, i32 2
  %24 = load ptr, ptr %23, align 8, !tbaa !105
  call void %21(ptr noundef %24)
  %25 = load ptr, ptr %7, align 8, !tbaa !84
  %26 = getelementptr inbounds nuw %struct.smb_conn, ptr %25, i32 0, i32 2
  store ptr null, ptr %26, align 8, !tbaa !105
  br label %27

27:                                               ; preds = %20
  br label %28

28:                                               ; preds = %27
  br label %29

29:                                               ; preds = %28
  %30 = load ptr, ptr @Curl_cfree, align 8, !tbaa !10
  %31 = load ptr, ptr %7, align 8, !tbaa !84
  %32 = getelementptr inbounds nuw %struct.smb_conn, ptr %31, i32 0, i32 7
  %33 = load ptr, ptr %32, align 8, !tbaa !92
  call void %30(ptr noundef %33)
  %34 = load ptr, ptr %7, align 8, !tbaa !84
  %35 = getelementptr inbounds nuw %struct.smb_conn, ptr %34, i32 0, i32 7
  store ptr null, ptr %35, align 8, !tbaa !92
  br label %36

36:                                               ; preds = %29
  br label %37

37:                                               ; preds = %36
  br label %38

38:                                               ; preds = %37
  %39 = load ptr, ptr @Curl_cfree, align 8, !tbaa !10
  %40 = load ptr, ptr %7, align 8, !tbaa !84
  %41 = getelementptr inbounds nuw %struct.smb_conn, ptr %40, i32 0, i32 8
  %42 = load ptr, ptr %41, align 8, !tbaa !93
  call void %39(ptr noundef %42)
  %43 = load ptr, ptr %7, align 8, !tbaa !84
  %44 = getelementptr inbounds nuw %struct.smb_conn, ptr %43, i32 0, i32 8
  store ptr null, ptr %44, align 8, !tbaa !93
  br label %45

45:                                               ; preds = %38
  br label %46

46:                                               ; preds = %45
  call void @llvm.lifetime.end.p0(i64 8, ptr %7) #8
  ret i32 0
}