; Function Attrs: nounwind uwtable
define internal noundef i32 @smb_disconnect(ptr readnone captures(none) %0, ptr noundef captures(none) %1, i1 zeroext %2) #0 {
  %4 = load ptr, ptr @Curl_cfree, align 8, !tbaa !3
  %5 = getelementptr inbounds nuw i8, ptr %1, i64 1112
  %6 = load ptr, ptr %5, align 8, !tbaa !78
  tail call void %4(ptr noundef %6) #11
  store ptr null, ptr %5, align 8, !tbaa !78
  %7 = load ptr, ptr @Curl_cfree, align 8, !tbaa !3
  %8 = getelementptr inbounds nuw i8, ptr %1, i64 1104
  %9 = load ptr, ptr %8, align 8, !tbaa !101
  tail call void %7(ptr noundef %9) #11
  store ptr null, ptr %8, align 8, !tbaa !101
  %10 = load ptr, ptr @Curl_cfree, align 8, !tbaa !3
  %11 = getelementptr inbounds nuw i8, ptr %1, i64 1136
  %12 = load ptr, ptr %11, align 8, !tbaa !89
  tail call void %10(ptr noundef %12) #11
  store ptr null, ptr %11, align 8, !tbaa !89
  %13 = load ptr, ptr @Curl_cfree, align 8, !tbaa !3
  %14 = getelementptr inbounds nuw i8, ptr %1, i64 1144
  %15 = load ptr, ptr %14, align 8, !tbaa !90
  tail call void %13(ptr noundef %15) #11
  store ptr null, ptr %14, align 8, !tbaa !90
  ret i32 0
}